target datalayout = "e-m:e-p270:32:32-p271:32:32-p272:64:64-i64:64-i128:128-f80:128-n8:16:32:64-S128"
target triple = "x86_64-unknown-linux-gnu"

%"class.cvc5::internal::theory::arith::linear::ArithEntailmentCheckSideEffects" = type { ptr }

; Function Attrs: mustprogress nounwind uwtable
define hidden void @_ZN4cvc58internal6theory5arith6linear31ArithEntailmentCheckSideEffectsD2Ev(ptr noundef nonnull align 8 dereferenceable(8) %this) unnamed_addr #4 align 2 {
entry:
  %this.addr = alloca ptr, align 8
  store ptr %this, ptr %this.addr, align 8
  %this1 = load ptr, ptr %this.addr, align 8
  %d_simplexSideEffects = getelementptr inbounds %"class.cvc5::internal::theory::arith::linear::ArithEntailmentCheckSideEffects", ptr %this1, i32 0, i32 0
  %0 = load ptr, ptr %d_simplexSideEffects, align 8
  %cmp = icmp ne ptr %0, null
  br i1 %cmp, label %if.then, label %if.end

if.then:                                          ; preds = %entry
  %d_simplexSideEffects2 = getelementptr inbounds %"class.cvc5::internal::theory::arith::linear::ArithEntailmentCheckSideEffects", ptr %this1, i32 0, i32 0
  %1 = load ptr, ptr %d_simplexSideEffects2, align 8
  %isnull = icmp eq ptr %1, null
  br i1 %isnull, label %delete.end, label %delete.notnull

delete.notnull:                                   ; preds = %if.then
  call void @_ZN4cvc58internal6theory5arith6linear17InferBoundsResultD2Ev(ptr noundef nonnull align 8 dereferenceable(96) %1) #3
  call void @_ZdlPv(ptr noundef %1) #16
  br label %delete.end

delete.end:                                       ; preds = %delete.notnull, %if.then
  %d_simplexSideEffects3 = getelementptr inbounds %"class.cvc5::internal::theory::arith::linear::ArithEntailmentCheckSideEffects", ptr %this1, i32 0, i32 0
  store ptr null, ptr %d_simplexSideEffects3, align 8
  br label %if.end

if.end:                                           ; preds = %delete.end, %entry
  ret void
}