; Function Attrs: mustprogress nounwind uwtable
define hidden void @_ZN4cvc58internal6theory5arith6linear31ArithEntailmentCheckSideEffectsD2Ev(ptr noundef nonnull align 8 captures(none) dereferenceable(8) %this) unnamed_addr #8 align 2 {
entry:
  %0 = load ptr, ptr %this, align 8
  %cmp.not = icmp eq ptr %0, null
  br i1 %cmp.not, label %if.end, label %delete.notnull

delete.notnull:                                   ; preds = %entry
  tail call void @_ZN4cvc58internal6theory5arith6linear17InferBoundsResultD2Ev(ptr noundef nonnull align 8 dereferenceable(96) %0) #27
  tail call void @_ZdlPv(ptr noundef nonnull %0) #23
  store ptr null, ptr %this, align 8
  br label %if.end

if.end:                                           ; preds = %delete.notnull, %entry
  ret void
}